(dp0
Vengine
p1
Vpdflatex
p2
sVpackages
p3
c__builtin__
set
p4
((lp5
Vsectsty
p6
aVtocloft
p7
aVverbatim
p8
aVfancyhdr
p9
aVgeometry
p10
aVbooktabs
p11
aValltt
p12
aVparalist
p13
aVcsquotes
p14
aVtocbibind
p15
aVarray
p16
aVinputenc
p17
aVsubfig
p18
atp19
Rp20
sVfiles_with_guttermarks
p21
g4
((lp22
V/Volumes/gauthif/JSRealB/JSRealB-S16/documentation/Rapport1.tex
p23
aV/Volumes/gauthif/JSRealB/JSRealB-S16/documentation/./Rapport1.tex
p24
atp25
Rp26
sVsynctex
p27
I01
s.